; Function Attrs: mustprogress nounwind uwtable
define dso_local void @_ZN4absl17BadStatusOrAccessC2EOS0_(ptr noundef nonnull align 8 dereferenceable(56) %this, ptr nocapture noundef nonnull align 8 dereferenceable(56) %other) unnamed_addr #3 align 2 personality ptr @__gxx_personality_v0 {
entry:
  store ptr getelementptr inbounds ({ [5 x ptr] }, ptr @_ZTVN4absl17BadStatusOrAccessE, i64 0, i32 0, i64 2), ptr %this, align 8
  %status_ = getelementptr inbounds i8, ptr %this, i64 8
  %status_2 = getelementptr inbounds i8, ptr %other, i64 8
  %0 = load i64, ptr %status_2, align 8
  store i64 %0, ptr %status_, align 8
  store i64 55, ptr %status_2, align 8
  %init_what_ = getelementptr inbounds i8, ptr %this, i64 16
  store i32 0, ptr %init_what_, align 8
  %what_ = getelementptr inbounds i8, ptr %this, i64 24
  tail call void @_ZNSt7__cxx1112basic_stringIcSt11char_traitsIcESaIcEEC1Ev(ptr noundef nonnull align 8 dereferenceable(32) %what_) #13
  ret void
}